target datalayout = "e-m:e-p270:32:32-p271:32:32-p272:64:64-i64:64-i128:128-f80:128-n8:16:32:64-S128"
target triple = "x86_64-pc-linux-gnu"

%struct.FunctionCallInfoBaseData = type { ptr, ptr, ptr, i32, i8, i16, [0 x %struct.NullableDatum] }
%struct.NullableDatum = type { i64, i8 }
%struct.Port = type { i32, i8, i32, %struct.SockAddr, %struct.SockAddr, ptr, ptr, i32, i32, ptr, ptr, ptr, ptr, ptr, ptr, ptr, i32, i32, i32, i32, i32, i32, i32, i32, [32 x i8], [32 x i8], i8, ptr, i8, ptr, ptr, i8, i8, i8, ptr, ptr, ptr, i64, i64 }
%struct.SockAddr = type { %struct.sockaddr_storage, i32 }
%struct.sockaddr_storage = type { i16, [118 x i8], i64 }

@MyProcPort = external global ptr, align 8

; Function Attrs: inlinehint nounwind uwtable
define internal i64 @PointerGetDatum(ptr noundef %0) #2 {
  %2 = alloca ptr, align 8
  store ptr %0, ptr %2, align 8
  %3 = load ptr, ptr %2, align 8
  %4 = ptrtoint ptr %3 to i64
  ret i64 %4
}

; Function Attrs: inlinehint nounwind uwtable
define internal i64 @CStringGetDatum(ptr noundef %0) #2 {
  %2 = alloca ptr, align 8
  store ptr %0, ptr %2, align 8
  %3 = load ptr, ptr %2, align 8
  %4 = call i64 @PointerGetDatum(ptr noundef %3)
  ret i64 %4
}

; Function Attrs: nounwind uwtable
define dso_local i64 @inet_client_port(ptr noundef %0) #0 {
  %2 = alloca i64, align 8
  %3 = alloca ptr, align 8
  %4 = alloca ptr, align 8
  %5 = alloca [32 x i8], align 16
  %6 = alloca i32, align 4
  %7 = alloca i32, align 4
  store ptr %0, ptr %3, align 8
  call void @llvm.lifetime.start.p0(i64 8, ptr %4) #8
  %8 = load ptr, ptr @MyProcPort, align 8
  store ptr %8, ptr %4, align 8
  call void @llvm.lifetime.start.p0(i64 32, ptr %5) #8
  call void @llvm.lifetime.start.p0(i64 4, ptr %6) #8
  %9 = load ptr, ptr %4, align 8
  %10 = icmp eq ptr %9, null
  br i1 %10, label %11, label %17

11:                                               ; preds = %1
  br label %12

12:                                               ; preds = %11
  %13 = load ptr, ptr %3, align 8
  %14 = getelementptr inbounds nuw %struct.FunctionCallInfoBaseData, ptr %13, i32 0, i32 4
  store i8 1, ptr %14, align 4
  store i64 0, ptr %2, align 8
  store i32 1, ptr %7, align 4
  br label %54

15:                                               ; No predecessors!
  br label %16

16:                                               ; preds = %15
  br label %17

17:                                               ; preds = %16, %1
  %18 = load ptr, ptr %4, align 8
  %19 = getelementptr inbounds nuw %struct.Port, ptr %18, i32 0, i32 4
  %20 = getelementptr inbounds nuw %struct.SockAddr, ptr %19, i32 0, i32 0
  %21 = getelementptr inbounds nuw %struct.sockaddr_storage, ptr %20, i32 0, i32 0
  %22 = load i16, ptr %21, align 8
  %23 = zext i16 %22 to i32
  switch i32 %23, label %25 [
    i32 2, label %24
    i32 10, label %24
  ]

24:                                               ; preds = %17, %17
  br label %31

25:                                               ; preds = %17
  br label %26

26:                                               ; preds = %25
  %27 = load ptr, ptr %3, align 8
  %28 = getelementptr inbounds nuw %struct.FunctionCallInfoBaseData, ptr %27, i32 0, i32 4
  store i8 1, ptr %28, align 4
  store i64 0, ptr %2, align 8
  store i32 1, ptr %7, align 4
  br label %54

29:                                               ; No predecessors!
  br label %30

30:                                               ; preds = %29
  br label %31

31:                                               ; preds = %30, %24
  %32 = getelementptr inbounds [32 x i8], ptr %5, i64 0, i64 0
  store i8 0, ptr %32, align 16
  %33 = load ptr, ptr %4, align 8
  %34 = getelementptr inbounds nuw %struct.Port, ptr %33, i32 0, i32 4
  %35 = getelementptr inbounds nuw %struct.SockAddr, ptr %34, i32 0, i32 0
  %36 = load ptr, ptr %4, align 8
  %37 = getelementptr inbounds nuw %struct.Port, ptr %36, i32 0, i32 4
  %38 = getelementptr inbounds nuw %struct.SockAddr, ptr %37, i32 0, i32 1
  %39 = load i32, ptr %38, align 8
  %40 = getelementptr inbounds [32 x i8], ptr %5, i64 0, i64 0
  %41 = call i32 @pg_getnameinfo_all(ptr noundef %35, i32 noundef %39, ptr noundef null, i32 noundef 0, ptr noundef %40, i32 noundef 32, i32 noundef 3)
  store i32 %41, ptr %6, align 4
  %42 = load i32, ptr %6, align 4
  %43 = icmp ne i32 %42, 0
  br i1 %43, label %44, label %50

44:                                               ; preds = %31
  br label %45

45:                                               ; preds = %44
  %46 = load ptr, ptr %3, align 8
  %47 = getelementptr inbounds nuw %struct.FunctionCallInfoBaseData, ptr %46, i32 0, i32 4
  store i8 1, ptr %47, align 4
  store i64 0, ptr %2, align 8
  store i32 1, ptr %7, align 4
  br label %54

48:                                               ; No predecessors!
  br label %49

49:                                               ; preds = %48
  br label %50

50:                                               ; preds = %49, %31
  %51 = getelementptr inbounds [32 x i8], ptr %5, i64 0, i64 0
  %52 = call i64 @CStringGetDatum(ptr noundef %51)
  %53 = call i64 @DirectFunctionCall1Coll(ptr noundef @int4in, i32 noundef 0, i64 noundef %52)
  store i64 %53, ptr %2, align 8
  store i32 1, ptr %7, align 4
  br label %54

54:                                               ; preds = %50, %45, %26, %12
  call void @llvm.lifetime.end.p0(i64 4, ptr %6) #8
  call void @llvm.lifetime.end.p0(i64 32, ptr %5) #8
  call void @llvm.lifetime.end.p0(i64 8, ptr %4) #8
  %55 = load i64, ptr %2, align 8
  ret i64 %55
}