; Function Attrs: nounwind uwtable
define dso_local i64 @inet_client_port(ptr noundef writeonly captures(none) %0) local_unnamed_addr #0 {
  %2 = alloca [32 x i8], align 16
  %3 = load ptr, ptr @MyProcPort, align 8
  call void @llvm.lifetime.start.p0(i64 32, ptr nonnull %2) #14
  %4 = icmp eq ptr %3, null
  br i1 %4, label %5, label %7

5:                                                ; preds = %1
  %6 = getelementptr inbounds nuw i8, ptr %0, i64 28
  store i8 1, ptr %6, align 4
  br label %21

7:                                                ; preds = %1
  %8 = getelementptr inbounds nuw i8, ptr %3, i64 152
  %9 = load i16, ptr %8, align 8
  switch i16 %9, label %10 [
    i16 2, label %12
    i16 10, label %12
  ]

10:                                               ; preds = %7
  %11 = getelementptr inbounds nuw i8, ptr %0, i64 28
  store i8 1, ptr %11, align 4
  br label %21

12:                                               ; preds = %7, %7
  store i8 0, ptr %2, align 16
  %13 = getelementptr inbounds nuw i8, ptr %3, i64 280
  %14 = load i32, ptr %13, align 8
  %15 = call i32 @pg_getnameinfo_all(ptr noundef nonnull %8, i32 noundef %14, ptr noundef null, i32 noundef 0, ptr noundef nonnull %2, i32 noundef 32, i32 noundef 3) #14
  %.not = icmp eq i32 %15, 0
  br i1 %.not, label %18, label %16

16:                                               ; preds = %12
  %17 = getelementptr inbounds nuw i8, ptr %0, i64 28
  store i8 1, ptr %17, align 4
  br label %21

18:                                               ; preds = %12
  %19 = ptrtoint ptr %2 to i64
  %20 = call i64 @DirectFunctionCall1Coll(ptr noundef nonnull @int4in, i32 noundef 0, i64 noundef %19) #14
  br label %21

21:                                               ; preds = %18, %16, %10, %5
  %.0 = phi i64 [ 0, %5 ], [ 0, %10 ], [ 0, %16 ], [ %20, %18 ]
  call void @llvm.lifetime.end.p0(i64 32, ptr nonnull %2) #14
  ret i64 %.0
}